target datalayout = "e-m:e-p270:32:32-p271:32:32-p272:64:64-i64:64-i128:128-f80:128-n8:16:32:64-S128"
target triple = "x86_64-pc-linux-gnu"

@.str.699 = private unnamed_addr constant [24 x i8] c"Remote Desktop Protocol\00", align 1
@.str.700 = private unnamed_addr constant [4 x i8] c"RDP\00", align 1
@.str.701 = private unnamed_addr constant [4 x i8] c"rdp\00", align 1
@proto_rdp = hidden global i32 0, align 4
@.str.702 = private unnamed_addr constant [9 x i8] c"tcp.port\00", align 1
@.str.703 = private unnamed_addr constant [14 x i8] c"tcp_port_info\00", align 1
@.str.704 = private unnamed_addr constant [174 x i8] c"The TCP ports used by the RDP protocol should be added to the TPKT preference \22TPKT TCP ports\22, or by selecting \22TPKT\22 as the \22Transport\22 protocol in the \22Decode As\22 dialog.\00", align 1
@.str.705 = private unnamed_addr constant [42 x i8] c"RDP TCP Port preference moved information\00", align 1
@.str.706 = private unnamed_addr constant [12 x i8] c"RDP payload\00", align 1
@rdp_heur_subdissector_list = internal global ptr null, align 8

; Function Attrs: null_pointer_is_valid sspstrong uwtable
define hidden void @proto_register_rdp() #0 {
  %1 = alloca ptr, align 8
  %2 = alloca ptr, align 8
  call void @llvm.lifetime.start.p0(i64 8, ptr %1) #15
  call void @llvm.lifetime.start.p0(i64 8, ptr %2) #15
  %3 = call i32 @proto_register_protocol(ptr noundef @.str.699, ptr noundef @.str.700, ptr noundef @.str.701)
  store i32 %3, ptr @proto_rdp, align 4
  %4 = load i32, ptr @proto_rdp, align 4
  call void @proto_register_field_array(i32 noundef %4, ptr noundef @proto_register_rdp.hf, i32 noundef 361)
  call void @proto_register_subtree_array(ptr noundef @proto_register_rdp.ett, i32 noundef 55)
  %5 = load i32, ptr @proto_rdp, align 4
  %6 = call ptr @expert_register_protocol(i32 noundef %5)
  store ptr %6, ptr %2, align 8
  %7 = load ptr, ptr %2, align 8
  call void @expert_register_field_array(ptr noundef %7, ptr noundef @proto_register_rdp.ei, i32 noundef 2)
  call void @register_init_routine(ptr noundef @init_server_conversations)
  %8 = load i32, ptr @proto_rdp, align 4
  %9 = call ptr @prefs_register_protocol(i32 noundef %8, ptr noundef null)
  store ptr %9, ptr %1, align 8
  %10 = load ptr, ptr %1, align 8
  call void @prefs_register_obsolete_preference(ptr noundef %10, ptr noundef @.str.702)
  %11 = load ptr, ptr %1, align 8
  call void @prefs_register_static_text_preference(ptr noundef %11, ptr noundef @.str.703, ptr noundef @.str.704, ptr noundef @.str.705)
  %12 = load i32, ptr @proto_rdp, align 4
  %13 = call ptr @register_heur_dissector_list_with_description(ptr noundef @.str.701, ptr noundef @.str.706, i32 noundef %12)
  store ptr %13, ptr @rdp_heur_subdissector_list, align 8
  call void @llvm.lifetime.end.p0(i64 8, ptr %2) #15
  call void @llvm.lifetime.end.p0(i64 8, ptr %1) #15
  ret void
}