; Function Attrs: null_pointer_is_valid sspstrong uwtable
define hidden void @proto_register_rdp() local_unnamed_addr #0 {
  %1 = tail call i32 @proto_register_protocol(ptr noundef nonnull @.str.699, ptr noundef nonnull @.str.700, ptr noundef nonnull @.str.701)
  store i32 %1, ptr @proto_rdp, align 4
  tail call void @proto_register_field_array(i32 noundef %1, ptr noundef nonnull @proto_register_rdp.hf, i32 noundef 361)
  tail call void @proto_register_subtree_array(ptr noundef nonnull @proto_register_rdp.ett, i32 noundef 55)
  %2 = load i32, ptr @proto_rdp, align 4
  %3 = tail call ptr @expert_register_protocol(i32 noundef %2)
  tail call void @expert_register_field_array(ptr noundef %3, ptr noundef nonnull @proto_register_rdp.ei, i32 noundef 2)
  tail call void @register_init_routine(ptr noundef nonnull @init_server_conversations)
  %4 = load i32, ptr @proto_rdp, align 4
  %5 = tail call ptr @prefs_register_protocol(i32 noundef %4, ptr noundef null)
  tail call void @prefs_register_obsolete_preference(ptr noundef %5, ptr noundef nonnull @.str.702)
  tail call void @prefs_register_static_text_preference(ptr noundef %5, ptr noundef nonnull @.str.703, ptr noundef nonnull @.str.704, ptr noundef nonnull @.str.705)
  %6 = load i32, ptr @proto_rdp, align 4
  %7 = tail call ptr @register_heur_dissector_list_with_description(ptr noundef nonnull @.str.701, ptr noundef nonnull @.str.706, i32 noundef %6)
  store ptr %7, ptr @rdp_heur_subdissector_list, align 8
  ret void
}